target datalayout = "e-m:e-p270:32:32-p271:32:32-p272:64:64-i64:64-i128:128-f80:128-n8:16:32:64-S128"
target triple = "x86_64-pc-linux-gnu"

%class.MarkedFileReader = type { %class.FileReader, i64 }
%class.FileReader = type { ptr, ptr }
%"class.DwarfFile::MarkedDwarfFileReader" = type { %class.MarkedFileReader, i64, i64 }

; Function Attrs: mustprogress nounwind uwtable
define hidden noundef zeroext i1 @_ZNK9DwarfFile21MarkedDwarfFileReader14has_bytes_leftEv(ptr noundef nonnull align 8 dereferenceable(40) %0) #1 align 2 {
  %2 = alloca i1, align 1
  %3 = alloca ptr, align 8
  store ptr %0, ptr %3, align 8
  %4 = load ptr, ptr %3, align 8
  %5 = getelementptr inbounds %"class.DwarfFile::MarkedDwarfFileReader", ptr %4, i32 0, i32 2
  %6 = load i64, ptr %5, align 8
  %7 = icmp eq i64 %6, -1
  br i1 %7, label %8, label %9

8:                                                ; preds = %1
  store i1 false, ptr %2, align 1
  br label %15

9:                                                ; preds = %1
  %10 = getelementptr inbounds %"class.DwarfFile::MarkedDwarfFileReader", ptr %4, i32 0, i32 1
  %11 = load i64, ptr %10, align 8
  %12 = getelementptr inbounds %"class.DwarfFile::MarkedDwarfFileReader", ptr %4, i32 0, i32 2
  %13 = load i64, ptr %12, align 8
  %14 = icmp slt i64 %11, %13
  store i1 %14, ptr %2, align 1
  br label %15

15:                                               ; preds = %9, %8
  %16 = load i1, ptr %2, align 1
  ret i1 %16
}