; Function Attrs: mustprogress nofree norecurse nosync nounwind willreturn memory(argmem: read) uwtable
define hidden noundef zeroext i1 @_ZNK9DwarfFile21MarkedDwarfFileReader14has_bytes_leftEv(ptr nocapture noundef nonnull readonly align 8 dereferenceable(40) %0) local_unnamed_addr #7 align 2 {
  %2 = getelementptr inbounds i8, ptr %0, i64 32
  %3 = load i64, ptr %2, align 8
  %4 = icmp ne i64 %3, -1
  %5 = getelementptr inbounds i8, ptr %0, i64 24
  %6 = load i64, ptr %5, align 8
  %7 = icmp slt i64 %6, %3
  %.0 = select i1 %4, i1 %7, i1 false
  ret i1 %.0
}